; ModuleID = '31/1314.c'
source_filename = "31/1314.c"
target datalayout = "e-m:e-p270:32:32-p271:32:32-p272:64:64-i64:64-f80:128-n8:16:32:64-S128"
target triple = "x86_64-pc-linux-gnu"

%struct.Student = type { [20 x i8], [20 x i8], i8, i32, [20 x i8], [20 x i8], %struct.Student* }

@n = dso_local global i32 0, align 4
@.str = private unnamed_addr constant [18 x i8] c"%s %s %c %d %s %s\00", align 1
@.str.1 = private unnamed_addr constant [4 x i8] c"end\00", align 1
@.str.2 = private unnamed_addr constant [3 x i8] c"%s\00", align 1
@.str.3 = private unnamed_addr constant [15 x i8] c"%s %c %d %s %s\00", align 1
@.str.4 = private unnamed_addr constant [19 x i8] c"%s %s %c %d %s %s\0A\00", align 1

; Function Attrs: noinline nounwind uwtable
define dso_local %struct.Student* @create() #0 {
  %1 = alloca %struct.Student*, align 8
  %2 = alloca %struct.Student*, align 8
  %3 = alloca %struct.Student*, align 8
  store i32 0, i32* @n, align 4
  %4 = call noalias i8* @malloc(i64 96) #4
  %5 = bitcast i8* %4 to %struct.Student*
  store %struct.Student* %5, %struct.Student** %3, align 8
  store %struct.Student* %5, %struct.Student** %2, align 8
  %6 = load %struct.Student*, %struct.Student** %2, align 8
  %7 = getelementptr inbounds %struct.Student, %struct.Student* %6, i32 0, i32 0
  %8 = getelementptr inbounds [20 x i8], [20 x i8]* %7, i64 0, i64 0
  %9 = load %struct.Student*, %struct.Student** %2, align 8
  %10 = getelementptr inbounds %struct.Student, %struct.Student* %9, i32 0, i32 1
  %11 = getelementptr inbounds [20 x i8], [20 x i8]* %10, i64 0, i64 0
  %12 = load %struct.Student*, %struct.Student** %2, align 8
  %13 = getelementptr inbounds %struct.Student, %struct.Student* %12, i32 0, i32 2
  %14 = load %struct.Student*, %struct.Student** %2, align 8
  %15 = getelementptr inbounds %struct.Student, %struct.Student* %14, i32 0, i32 3
  %16 = load %struct.Student*, %struct.Student** %2, align 8
  %17 = getelementptr inbounds %struct.Student, %struct.Student* %16, i32 0, i32 4
  %18 = getelementptr inbounds [20 x i8], [20 x i8]* %17, i64 0, i64 0
  %19 = load %struct.Student*, %struct.Student** %2, align 8
  %20 = getelementptr inbounds %struct.Student, %struct.Student* %19, i32 0, i32 5
  %21 = getelementptr inbounds [20 x i8], [20 x i8]* %20, i64 0, i64 0
  %22 = call i32 (i8*, ...) @__isoc99_scanf(i8* getelementptr inbounds ([18 x i8], [18 x i8]* @.str, i64 0, i64 0), i8* %8, i8* %11, i8* %13, i32* %15, i8* %18, i8* %21)
  store %struct.Student* null, %struct.Student** %1, align 8
  br label %23

23:                                               ; preds = %68, %0
  %24 = load %struct.Student*, %struct.Student** %2, align 8
  %25 = getelementptr inbounds %struct.Student, %struct.Student* %24, i32 0, i32 0
  %26 = getelementptr inbounds [20 x i8], [20 x i8]* %25, i64 0, i64 0
  %27 = call i32 @strcmp(i8* %26, i8* getelementptr inbounds ([4 x i8], [4 x i8]* @.str.1, i64 0, i64 0)) #5
  %28 = icmp ne i32 %27, 0
  br i1 %28, label %29, label %69

29:                                               ; preds = %23
  %30 = load i32, i32* @n, align 4
  %31 = add nsw i32 %30, 1
  store i32 %31, i32* @n, align 4
  %32 = load i32, i32* @n, align 4
  %33 = icmp eq i32 %32, 1
  br i1 %33, label %34, label %36

34:                                               ; preds = %29
  %35 = load %struct.Student*, %struct.Student** %2, align 8
  store %struct.Student* %35, %struct.Student** %1, align 8
  br label %40

36:                                               ; preds = %29
  %37 = load %struct.Student*, %struct.Student** %2, align 8
  %38 = load %struct.Student*, %struct.Student** %3, align 8
  %39 = getelementptr inbounds %struct.Student, %struct.Student* %38, i32 0, i32 6
  store %struct.Student* %37, %struct.Student** %39, align 8
  br label %40

40:                                               ; preds = %36, %34
  %41 = load %struct.Student*, %struct.Student** %2, align 8
  store %struct.Student* %41, %struct.Student** %3, align 8
  %42 = call noalias i8* @malloc(i64 96) #4
  %43 = bitcast i8* %42 to %struct.Student*
  store %struct.Student* %43, %struct.Student** %2, align 8
  %44 = load %struct.Student*, %struct.Student** %2, align 8
  %45 = getelementptr inbounds %struct.Student, %struct.Student* %44, i32 0, i32 0
  %46 = getelementptr inbounds [20 x i8], [20 x i8]* %45, i64 0, i64 0
  %47 = call i32 (i8*, ...) @__isoc99_scanf(i8* getelementptr inbounds ([3 x i8], [3 x i8]* @.str.2, i64 0, i64 0), i8* %46)
  %48 = load %struct.Student*, %struct.Student** %2, align 8
  %49 = getelementptr inbounds %struct.Student, %struct.Student* %48, i32 0, i32 0
  %50 = getelementptr inbounds [20 x i8], [20 x i8]* %49, i64 0, i64 0
  %51 = call i32 @strcmp(i8* %50, i8* getelementptr inbounds ([4 x i8], [4 x i8]* @.str.1, i64 0, i64 0)) #5
  %52 = icmp ne i32 %51, 0
  br i1 %52, label %53, label %68

53:                                               ; preds = %40
  %54 = load %struct.Student*, %struct.Student** %2, align 8
  %55 = getelementptr inbounds %struct.Student, %struct.Student* %54, i32 0, i32 1
  %56 = getelementptr inbounds [20 x i8], [20 x i8]* %55, i64 0, i64 0
  %57 = load %struct.Student*, %struct.Student** %2, align 8
  %58 = getelementptr inbounds %struct.Student, %struct.Student* %57, i32 0, i32 2
  %59 = load %struct.Student*, %struct.Student** %2, align 8
  %60 = getelementptr inbounds %struct.Student, %struct.Student* %59, i32 0, i32 3
  %61 = load %struct.Student*, %struct.Student** %2, align 8
  %62 = getelementptr inbounds %struct.Student, %struct.Student* %61, i32 0, i32 4
  %63 = getelementptr inbounds [20 x i8], [20 x i8]* %62, i64 0, i64 0
  %64 = load %struct.Student*, %struct.Student** %2, align 8
  %65 = getelementptr inbounds %struct.Student, %struct.Student* %64, i32 0, i32 5
  %66 = getelementptr inbounds [20 x i8], [20 x i8]* %65, i64 0, i64 0
  %67 = call i32 (i8*, ...) @__isoc99_scanf(i8* getelementptr inbounds ([15 x i8], [15 x i8]* @.str.3, i64 0, i64 0), i8* %56, i8* %58, i32* %60, i8* %63, i8* %66)
  br label %68

68:                                               ; preds = %53, %40
  br label %23

69:                                               ; preds = %23
  %70 = load %struct.Student*, %struct.Student** %3, align 8
  %71 = getelementptr inbounds %struct.Student, %struct.Student* %70, i32 0, i32 6
  store %struct.Student* null, %struct.Student** %71, align 8
  %72 = load %struct.Student*, %struct.Student** %1, align 8
  ret %struct.Student* %72
}

; Function Attrs: nounwind
declare dso_local noalias i8* @malloc(i64) #1

declare dso_local i32 @__isoc99_scanf(i8*, ...) #2

; Function Attrs: nounwind readonly
declare dso_local i32 @strcmp(i8*, i8*) #3

; Function Attrs: noinline nounwind uwtable
define dso_local void @print(%struct.Student* %0) #0 {
  %2 = alloca %struct.Student*, align 8
  %3 = alloca %struct.Student*, align 8
  store %struct.Student* %0, %struct.Student** %2, align 8
  %4 = load %struct.Student*, %struct.Student** %2, align 8
  store %struct.Student* %4, %struct.Student** %3, align 8
  %5 = load %struct.Student*, %struct.Student** %3, align 8
  %6 = getelementptr inbounds %struct.Student, %struct.Student* %5, i32 0, i32 6
  %7 = load %struct.Student*, %struct.Student** %6, align 8
  %8 = icmp ne %struct.Student* %7, null
  br i1 %8, label %9, label %13

9:                                                ; preds = %1
  %10 = load %struct.Student*, %struct.Student** %3, align 8
  %11 = getelementptr inbounds %struct.Student, %struct.Student* %10, i32 0, i32 6
  %12 = load %struct.Student*, %struct.Student** %11, align 8
  call void @print(%struct.Student* %12)
  br label %13

13:                                               ; preds = %9, %1
  %14 = load %struct.Student*, %struct.Student** %3, align 8
  %15 = getelementptr inbounds %struct.Student, %struct.Student* %14, i32 0, i32 0
  %16 = getelementptr inbounds [20 x i8], [20 x i8]* %15, i64 0, i64 0
  %17 = load %struct.Student*, %struct.Student** %3, align 8
  %18 = getelementptr inbounds %struct.Student, %struct.Student* %17, i32 0, i32 1
  %19 = getelementptr inbounds [20 x i8], [20 x i8]* %18, i64 0, i64 0
  %20 = load %struct.Student*, %struct.Student** %3, align 8
  %21 = getelementptr inbounds %struct.Student, %struct.Student* %20, i32 0, i32 2
  %22 = load i8, i8* %21, align 8
  %23 = sext i8 %22 to i32
  %24 = load %struct.Student*, %struct.Student** %3, align 8
  %25 = getelementptr inbounds %struct.Student, %struct.Student* %24, i32 0, i32 3
  %26 = load i32, i32* %25, align 4
  %27 = load %struct.Student*, %struct.Student** %3, align 8
  %28 = getelementptr inbounds %struct.Student, %struct.Student* %27, i32 0, i32 4
  %29 = getelementptr inbounds [20 x i8], [20 x i8]* %28, i64 0, i64 0
  %30 = load %struct.Student*, %struct.Student** %3, align 8
  %31 = getelementptr inbounds %struct.Student, %struct.Student* %30, i32 0, i32 5
  %32 = getelementptr inbounds [20 x i8], [20 x i8]* %31, i64 0, i64 0
  %33 = call i32 (i8*, ...) @printf(i8* getelementptr inbounds ([19 x i8], [19 x i8]* @.str.4, i64 0, i64 0), i8* %16, i8* %19, i32 %23, i32 %26, i8* %29, i8* %32)
  ret void
}

declare dso_local i32 @printf(i8*, ...) #2

; Function Attrs: noinline nounwind uwtable
define dso_local i32 @main() #0 {
  %1 = alloca i32, align 4
  %2 = alloca %struct.Student*, align 8
  store i32 0, i32* %1, align 4
  %3 = call %struct.Student* @create()
  store %struct.Student* %3, %struct.Student** %2, align 8
  %4 = load %struct.Student*, %struct.Student** %2, align 8
  call void @print(%struct.Student* %4)
  ret i32 0
}


!llvm.module.flags = !{!0}
!llvm.ident = !{!1}

!0 = !{i32 1, !"wchar_size", i32 4}
!1 = !{!"clang version 10.0.0-4ubuntu1 "}
